target datalayout = "e-m:e-p270:32:32-p271:32:32-p272:64:64-i64:64-i128:128-f80:128-n8:16:32:64-S128"
target triple = "x86_64-pc-linux-gnu"

@hf_homeplug_av_reserved = internal global i32 0, align 4
@hf_homeplug_av_nw_info_net_info = internal global i32 0, align 4
@hf_homeplug_av_nw_info_nid = internal global i32 0, align 4
@hf_homeplug_av_nw_info_snid = internal global i32 0, align 4
@hf_homeplug_av_nw_info_tei = internal global i32 0, align 4
@hf_homeplug_av_nw_info_sta_role = internal global i32 0, align 4
@hf_homeplug_av_nw_info_cco_mac = internal global i32 0, align 4
@hf_homeplug_av_nw_info_cco_tei = internal global i32 0, align 4
@hf_homeplug_av_nw_info_access = internal global i32 0, align 4
@hf_homeplug_av_nw_info_num_coord = internal global i32 0, align 4
@ett_homeplug_av_nw_info_net_info = internal global i32 0, align 4

; Function Attrs: nounwind uwtable
define internal void @dissect_homeplug_av_nw_info_net(ptr noundef %0, i32 noundef %1, i8 noundef zeroext %2) #0 {
  %4 = alloca ptr, align 8
  %5 = alloca i32, align 4
  %6 = alloca i8, align 1
  %7 = alloca ptr, align 8
  store ptr %0, ptr %4, align 8
  store i32 %1, ptr %5, align 4
  store i8 %2, ptr %6, align 1
  %8 = load ptr, ptr %4, align 8
  %9 = call ptr @ptvcursor_tree(ptr noundef %8)
  %10 = icmp ne ptr %9, null
  br i1 %10, label %12, label %11

11:                                               ; preds = %3
  br label %74

12:                                               ; preds = %3
  %13 = load ptr, ptr %4, align 8
  %14 = load i32, ptr @hf_homeplug_av_nw_info_net_info, align 4
  %15 = call ptr @ptvcursor_add_no_advance(ptr noundef %13, i32 noundef %14, i32 noundef -1, i32 noundef 0)
  store ptr %15, ptr %7, align 8
  %16 = load ptr, ptr %4, align 8
  %17 = load ptr, ptr %7, align 8
  %18 = load i32, ptr @ett_homeplug_av_nw_info_net_info, align 4
  %19 = call ptr @ptvcursor_push_subtree(ptr noundef %16, ptr noundef %17, i32 noundef %18)
  %20 = load ptr, ptr %4, align 8
  %21 = load i32, ptr @hf_homeplug_av_nw_info_nid, align 4
  %22 = call ptr @ptvcursor_add(ptr noundef %20, i32 noundef %21, i32 noundef 7, i32 noundef 0)
  %23 = load i8, ptr %6, align 1
  %24 = zext i8 %23 to i32
  %25 = icmp eq i32 %24, 1
  br i1 %25, label %26, label %30

26:                                               ; preds = %12
  %27 = load ptr, ptr %4, align 8
  %28 = load i32, ptr @hf_homeplug_av_reserved, align 4
  %29 = call ptr @ptvcursor_add(ptr noundef %27, i32 noundef %28, i32 noundef 2, i32 noundef 0)
  br label %30

30:                                               ; preds = %26, %12
  %31 = load ptr, ptr %4, align 8
  %32 = load i32, ptr @hf_homeplug_av_nw_info_snid, align 4
  %33 = call ptr @ptvcursor_add(ptr noundef %31, i32 noundef %32, i32 noundef 1, i32 noundef 0)
  %34 = load ptr, ptr %4, align 8
  %35 = load i32, ptr @hf_homeplug_av_nw_info_tei, align 4
  %36 = call ptr @ptvcursor_add(ptr noundef %34, i32 noundef %35, i32 noundef 1, i32 noundef 0)
  %37 = load i8, ptr %6, align 1
  %38 = zext i8 %37 to i32
  %39 = icmp eq i32 %38, 1
  br i1 %39, label %40, label %44

40:                                               ; preds = %30
  %41 = load ptr, ptr %4, align 8
  %42 = load i32, ptr @hf_homeplug_av_reserved, align 4
  %43 = call ptr @ptvcursor_add(ptr noundef %41, i32 noundef %42, i32 noundef 4, i32 noundef 0)
  br label %44

44:                                               ; preds = %40, %30
  %45 = load ptr, ptr %4, align 8
  %46 = load i32, ptr @hf_homeplug_av_nw_info_sta_role, align 4
  %47 = call ptr @ptvcursor_add(ptr noundef %45, i32 noundef %46, i32 noundef 1, i32 noundef 0)
  %48 = load ptr, ptr %4, align 8
  %49 = load i32, ptr @hf_homeplug_av_nw_info_cco_mac, align 4
  %50 = call ptr @ptvcursor_add(ptr noundef %48, i32 noundef %49, i32 noundef 6, i32 noundef 0)
  %51 = load i32, ptr %5, align 4
  %52 = icmp ne i32 %51, 0
  br i1 %52, label %53, label %65

53:                                               ; preds = %44
  %54 = load ptr, ptr %4, align 8
  %55 = load i32, ptr @hf_homeplug_av_nw_info_cco_tei, align 4
  %56 = call ptr @ptvcursor_add(ptr noundef %54, i32 noundef %55, i32 noundef 1, i32 noundef 0)
  %57 = load i8, ptr %6, align 1
  %58 = zext i8 %57 to i32
  %59 = icmp eq i32 %58, 1
  br i1 %59, label %60, label %64

60:                                               ; preds = %53
  %61 = load ptr, ptr %4, align 8
  %62 = load i32, ptr @hf_homeplug_av_reserved, align 4
  %63 = call ptr @ptvcursor_add(ptr noundef %61, i32 noundef %62, i32 noundef 3, i32 noundef 0)
  br label %64

64:                                               ; preds = %60, %53
  br label %72

65:                                               ; preds = %44
  %66 = load ptr, ptr %4, align 8
  %67 = load i32, ptr @hf_homeplug_av_nw_info_access, align 4
  %68 = call ptr @ptvcursor_add(ptr noundef %66, i32 noundef %67, i32 noundef 1, i32 noundef 0)
  %69 = load ptr, ptr %4, align 8
  %70 = load i32, ptr @hf_homeplug_av_nw_info_num_coord, align 4
  %71 = call ptr @ptvcursor_add(ptr noundef %69, i32 noundef %70, i32 noundef 1, i32 noundef 0)
  br label %72

72:                                               ; preds = %65, %64
  %73 = load ptr, ptr %4, align 8
  call void @ptvcursor_pop_subtree(ptr noundef %73)
  br label %74

74:                                               ; preds = %72, %11
  ret void
}