; Function Attrs: nounwind uwtable
define internal fastcc void @dissect_homeplug_av_nw_info_net(ptr noundef %0, i32 noundef range(i32 0, 2) %1, i8 noundef zeroext %2) unnamed_addr #0 {
  %4 = tail call ptr @ptvcursor_tree(ptr noundef %0) #5
  %.not = icmp eq ptr %4, null
  br i1 %.not, label %35, label %5

5:                                                ; preds = %3
  %6 = load i32, ptr @hf_homeplug_av_nw_info_net_info, align 4
  %7 = tail call ptr @ptvcursor_add_no_advance(ptr noundef %0, i32 noundef %6, i32 noundef -1, i32 noundef 0) #5
  %8 = load i32, ptr @ett_homeplug_av_nw_info_net_info, align 4
  %9 = tail call ptr @ptvcursor_push_subtree(ptr noundef %0, ptr noundef %7, i32 noundef %8) #5
  %10 = load i32, ptr @hf_homeplug_av_nw_info_nid, align 4
  %11 = tail call ptr @ptvcursor_add(ptr noundef %0, i32 noundef %10, i32 noundef 7, i32 noundef 0) #5
  %12 = icmp eq i8 %2, 1
  br i1 %12, label %13, label %.critedge

13:                                               ; preds = %5
  %14 = load i32, ptr @hf_homeplug_av_reserved, align 4
  %15 = tail call ptr @ptvcursor_add(ptr noundef %0, i32 noundef %14, i32 noundef 2, i32 noundef 0) #5
  %16 = load i32, ptr @hf_homeplug_av_nw_info_snid, align 4
  %17 = tail call ptr @ptvcursor_add(ptr noundef %0, i32 noundef %16, i32 noundef 1, i32 noundef 0) #5
  br label %.critedge

.critedge:                                        ; preds = %5, %13
  %hf_homeplug_av_nw_info_snid.sink = phi ptr [ @hf_homeplug_av_nw_info_tei, %13 ], [ @hf_homeplug_av_nw_info_snid, %5 ]
  %hf_homeplug_av_nw_info_tei.sink = phi ptr [ @hf_homeplug_av_reserved, %13 ], [ @hf_homeplug_av_nw_info_tei, %5 ]
  %.sink20 = phi i32 [ 4, %13 ], [ 1, %5 ]
  %18 = load i32, ptr %hf_homeplug_av_nw_info_snid.sink, align 4
  %19 = tail call ptr @ptvcursor_add(ptr noundef %0, i32 noundef %18, i32 noundef 1, i32 noundef 0) #5
  %20 = load i32, ptr %hf_homeplug_av_nw_info_tei.sink, align 4
  %21 = tail call ptr @ptvcursor_add(ptr noundef %0, i32 noundef %20, i32 noundef %.sink20, i32 noundef 0) #5
  %22 = load i32, ptr @hf_homeplug_av_nw_info_sta_role, align 4
  %23 = tail call ptr @ptvcursor_add(ptr noundef %0, i32 noundef %22, i32 noundef 1, i32 noundef 0) #5
  %24 = load i32, ptr @hf_homeplug_av_nw_info_cco_mac, align 4
  %25 = tail call ptr @ptvcursor_add(ptr noundef %0, i32 noundef %24, i32 noundef 6, i32 noundef 0) #5
  %.not19 = icmp eq i32 %1, 0
  br i1 %.not19, label %29, label %26

26:                                               ; preds = %.critedge
  %27 = load i32, ptr @hf_homeplug_av_nw_info_cco_tei, align 4
  %28 = tail call ptr @ptvcursor_add(ptr noundef %0, i32 noundef %27, i32 noundef 1, i32 noundef 0) #5
  br i1 %12, label %.sink.split, label %34

29:                                               ; preds = %.critedge
  %30 = load i32, ptr @hf_homeplug_av_nw_info_access, align 4
  %31 = tail call ptr @ptvcursor_add(ptr noundef %0, i32 noundef %30, i32 noundef 1, i32 noundef 0) #5
  br label %.sink.split

.sink.split:                                      ; preds = %26, %29
  %hf_homeplug_av_reserved.sink = phi ptr [ @hf_homeplug_av_nw_info_num_coord, %29 ], [ @hf_homeplug_av_reserved, %26 ]
  %.sink21 = phi i32 [ 1, %29 ], [ 3, %26 ]
  %32 = load i32, ptr %hf_homeplug_av_reserved.sink, align 4
  %33 = tail call ptr @ptvcursor_add(ptr noundef %0, i32 noundef %32, i32 noundef %.sink21, i32 noundef 0) #5
  br label %34

34:                                               ; preds = %.sink.split, %26
  tail call void @ptvcursor_pop_subtree(ptr noundef %0) #5
  br label %35

35:                                               ; preds = %3, %34
  ret void
}